; Function Attrs: mustprogress uwtable
define void @_ZN8facebook5velox15ByteInputStream4skipEi(ptr noundef nonnull align 8 dereferenceable(40) %this, i32 noundef %size) local_unnamed_addr #0 align 2 {
entry:
  %current_ = getelementptr inbounds i8, ptr %this, i64 32
  %0 = load ptr, ptr %current_, align 8
  %size25 = getelementptr inbounds i8, ptr %0, i64 8
  %1 = load i32, ptr %size25, align 8
  %position6 = getelementptr inbounds i8, ptr %0, i64 12
  %2 = load i32, ptr %position6, align 4
  %sub7 = sub nsw i32 %1, %2
  %.sroa.speculated8 = tail call i32 @llvm.smin.i32(i32 %size, i32 %sub7)
  %add9 = add nsw i32 %.sroa.speculated8, %2
  store i32 %add9, ptr %position6, align 4
  %tobool.not.not10 = icmp slt i32 %sub7, %size
  br i1 %tobool.not.not10, label %if.end, label %if.then

if.then:                                          ; preds = %if.end, %entry
  ret void

if.end:                                           ; preds = %entry, %if.end
  %.sroa.speculated12 = phi i32 [ %.sroa.speculated, %if.end ], [ %.sroa.speculated8, %entry ]
  %size.addr.011 = phi i32 [ %sub4, %if.end ], [ %size, %entry ]
  %sub4 = sub nsw i32 %size.addr.011, %.sroa.speculated12
  %vtable = load ptr, ptr %this, align 8
  %vfn = getelementptr inbounds i8, ptr %vtable, i64 24
  %3 = load ptr, ptr %vfn, align 8
  tail call void %3(ptr noundef nonnull align 8 dereferenceable(40) %this, i1 noundef zeroext true)
  %4 = load ptr, ptr %current_, align 8
  %size2 = getelementptr inbounds i8, ptr %4, i64 8
  %5 = load i32, ptr %size2, align 8
  %position = getelementptr inbounds i8, ptr %4, i64 12
  %6 = load i32, ptr %position, align 4
  %sub = sub nsw i32 %5, %6
  %.sroa.speculated = tail call i32 @llvm.smin.i32(i32 %sub4, i32 %sub)
  %add = add nsw i32 %.sroa.speculated, %6
  store i32 %add, ptr %position, align 4
  %tobool.not.not = icmp sgt i32 %sub4, %sub
  br i1 %tobool.not.not, label %if.end, label %if.then, !llvm.loop !12
}